; Function Attrs: mustprogress uwtable
define hidden void @_ZN5osgeo4proj22CPLJSonStreamingWriter7AddNullEv(ptr noundef nonnull align 8 dereferenceable(153) %0) local_unnamed_addr #0 align 2 personality ptr @__gxx_personality_v0 {
  %2 = alloca %"class.std::__cxx11::basic_string", align 8
  %3 = alloca %"class.std::allocator", align 1
  tail call void @_ZN5osgeo4proj22CPLJSonStreamingWriter17EmitCommaIfNeededEv(ptr noundef nonnull align 8 dereferenceable(153) %0)
  call void @_ZNSaIcEC1Ev(ptr noundef nonnull align 1 dereferenceable(1) %3) #13
  invoke void @_ZNSt7__cxx1112basic_stringIcSt11char_traitsIcESaIcEEC1EPKcRKS3_(ptr noundef nonnull align 8 dereferenceable(32) %2, ptr noundef nonnull @.str.27, ptr noundef nonnull align 1 dereferenceable(1) %3)
          to label %4 unwind label %13

4:                                                ; preds = %1
  %5 = getelementptr inbounds i8, ptr %0, i64 32
  %6 = load ptr, ptr %5, align 8
  %.not.i = icmp eq ptr %6, null
  br i1 %.not.i, label %11, label %7

7:                                                ; preds = %4
  %8 = call noundef ptr @_ZNKSt7__cxx1112basic_stringIcSt11char_traitsIcESaIcEE5c_strEv(ptr noundef nonnull align 8 dereferenceable(32) %2) #13
  %9 = getelementptr inbounds i8, ptr %0, i64 40
  %10 = load ptr, ptr %9, align 8
  invoke void %6(ptr noundef %8, ptr noundef %10)
          to label %_ZN5osgeo4proj22CPLJSonStreamingWriter5PrintERKNSt7__cxx1112basic_stringIcSt11char_traitsIcESaIcEEE.exit unwind label %15

11:                                               ; preds = %4
  %12 = invoke noundef nonnull align 8 dereferenceable(32) ptr @_ZNSt7__cxx1112basic_stringIcSt11char_traitsIcESaIcEEpLERKS4_(ptr noundef nonnull align 8 dereferenceable(32) %0, ptr noundef nonnull align 8 dereferenceable(32) %2)
          to label %_ZN5osgeo4proj22CPLJSonStreamingWriter5PrintERKNSt7__cxx1112basic_stringIcSt11char_traitsIcESaIcEEE.exit unwind label %15

_ZN5osgeo4proj22CPLJSonStreamingWriter5PrintERKNSt7__cxx1112basic_stringIcSt11char_traitsIcESaIcEEE.exit: ; preds = %7, %11
  call void @_ZNSt7__cxx1112basic_stringIcSt11char_traitsIcESaIcEED1Ev(ptr noundef nonnull align 8 dereferenceable(32) %2) #13
  call void @_ZNSaIcED1Ev(ptr noundef nonnull align 1 dereferenceable(1) %3) #13
  ret void

13:                                               ; preds = %1
  %14 = landingpad { ptr, i32 }
          cleanup
  br label %17

15:                                               ; preds = %11, %7
  %16 = landingpad { ptr, i32 }
          cleanup
  call void @_ZNSt7__cxx1112basic_stringIcSt11char_traitsIcESaIcEED1Ev(ptr noundef nonnull align 8 dereferenceable(32) %2) #13
  br label %17

17:                                               ; preds = %15, %13
  %.pn = phi { ptr, i32 } [ %16, %15 ], [ %14, %13 ]
  call void @_ZNSaIcED1Ev(ptr noundef nonnull align 1 dereferenceable(1) %3) #13
  resume { ptr, i32 } %.pn
}